; Function Attrs: mustprogress nounwind uwtable
define void @WasmEdge_TableInstanceDelete(ptr noundef %0) local_unnamed_addr #10 personality ptr @__gxx_personality_v0 {
  %2 = icmp eq ptr %0, null
  br i1 %2, label %12, label %3

3:                                                ; preds = %1
  %4 = getelementptr inbounds i8, ptr %0, i64 24
  %5 = load ptr, ptr %4, align 8
  %.not.i.i.i.i = icmp eq ptr %5, null
  br i1 %.not.i.i.i.i, label %_ZN8WasmEdge7Runtime8Instance13TableInstanceD2Ev.exit, label %6

6:                                                ; preds = %3
  %7 = getelementptr inbounds i8, ptr %0, i64 40
  %8 = load ptr, ptr %7, align 8
  %9 = ptrtoint ptr %8 to i64
  %10 = ptrtoint ptr %5 to i64
  %11 = sub i64 %9, %10
  tail call void @_ZdlPvm(ptr noundef nonnull %5, i64 noundef %11) #36
  br label %_ZN8WasmEdge7Runtime8Instance13TableInstanceD2Ev.exit

_ZN8WasmEdge7Runtime8Instance13TableInstanceD2Ev.exit: ; preds = %3, %6
  tail call void @_ZdlPvm(ptr noundef nonnull %0, i64 noundef 64) #36
  br label %12

12:                                               ; preds = %_ZN8WasmEdge7Runtime8Instance13TableInstanceD2Ev.exit, %1
  ret void
}